; Function Attrs: nounwind uwtable
define internal fastcc noundef i64 @fmap_readn(ptr noundef %0, ptr nocapture noundef writeonly %1, i64 noundef %2, i64 noundef %3) unnamed_addr #1 {
  %5 = getelementptr inbounds i8, ptr %0, i64 88
  %6 = load i64, ptr %5, align 8
  %7 = icmp ne i64 %6, %2
  %8 = icmp ne i64 %3, 0
  %or.cond = and i1 %8, %7
  br i1 %or.cond, label %9, label %19

9:                                                ; preds = %4
  %10 = icmp ult i64 %6, %2
  br i1 %10, label %19, label %11

11:                                               ; preds = %9
  %12 = sub i64 %6, %2
  %spec.select = tail call i64 @llvm.umin.i64(i64 %12, i64 %3)
  %13 = getelementptr inbounds i8, ptr %0, i64 104
  %14 = load ptr, ptr %13, align 8
  %15 = tail call ptr %14(ptr noundef nonnull %0, i64 noundef %2, i64 noundef %spec.select, i32 noundef 0) #20
  %.not = icmp eq ptr %15, null
  br i1 %.not, label %19, label %16

16:                                               ; preds = %11
  tail call void @llvm.memcpy.p0.p0.i64(ptr align 1 %1, ptr nonnull align 1 %15, i64 %spec.select, i1 false)
  %17 = icmp ult i64 %spec.select, 2147483648
  %18 = select i1 %17, i64 %spec.select, i64 -1
  br label %19

19:                                               ; preds = %11, %9, %4, %16
  %.0 = phi i64 [ %18, %16 ], [ 0, %4 ], [ -1, %9 ], [ -1, %11 ]
  ret i64 %.0
}